target datalayout = "e-m:e-p270:32:32-p271:32:32-p272:64:64-i64:64-i128:128-f80:128-n8:16:32:64-S128"
target triple = "x86_64-pc-linux-gnu"

; Function Attrs: nounwind uwtable
define i32 @Dau_DsdNormalizeCompare(ptr noundef %0, ptr noundef %1, i32 noundef %2, i32 noundef %3) #0 {
  %5 = alloca i32, align 4
  %6 = alloca ptr, align 8
  %7 = alloca ptr, align 8
  %8 = alloca i32, align 4
  %9 = alloca i32, align 4
  %10 = alloca ptr, align 8
  %11 = alloca ptr, align 8
  %12 = alloca ptr, align 8
  %13 = alloca ptr, align 8
  %14 = alloca i32, align 4
  store ptr %0, ptr %6, align 8, !tbaa !3
  store ptr %1, ptr %7, align 8, !tbaa !14
  store i32 %2, ptr %8, align 4, !tbaa !8
  store i32 %3, ptr %9, align 4, !tbaa !8
  call void @llvm.lifetime.start.p0(i64 8, ptr %10) #9
  %15 = load ptr, ptr %6, align 8, !tbaa !3
  %16 = load ptr, ptr %7, align 8, !tbaa !14
  %17 = load i32, ptr %8, align 4, !tbaa !8
  %18 = sext i32 %17 to i64
  %19 = getelementptr inbounds i32, ptr %16, i64 %18
  %20 = load i32, ptr %19, align 4, !tbaa !8
  %21 = sext i32 %20 to i64
  %22 = getelementptr inbounds i8, ptr %15, i64 %21
  store ptr %22, ptr %10, align 8, !tbaa !3
  call void @llvm.lifetime.start.p0(i64 8, ptr %11) #9
  %23 = load ptr, ptr %6, align 8, !tbaa !3
  %24 = load ptr, ptr %7, align 8, !tbaa !14
  %25 = load i32, ptr %9, align 4, !tbaa !8
  %26 = sext i32 %25 to i64
  %27 = getelementptr inbounds i32, ptr %24, i64 %26
  %28 = load i32, ptr %27, align 4, !tbaa !8
  %29 = sext i32 %28 to i64
  %30 = getelementptr inbounds i8, ptr %23, i64 %29
  store ptr %30, ptr %11, align 8, !tbaa !3
  call void @llvm.lifetime.start.p0(i64 8, ptr %12) #9
  %31 = load ptr, ptr %6, align 8, !tbaa !3
  %32 = load ptr, ptr %7, align 8, !tbaa !14
  %33 = load i32, ptr %8, align 4, !tbaa !8
  %34 = add nsw i32 %33, 1
  %35 = sext i32 %34 to i64
  %36 = getelementptr inbounds i32, ptr %32, i64 %35
  %37 = load i32, ptr %36, align 4, !tbaa !8
  %38 = sext i32 %37 to i64
  %39 = getelementptr inbounds i8, ptr %31, i64 %38
  store ptr %39, ptr %12, align 8, !tbaa !3
  call void @llvm.lifetime.start.p0(i64 8, ptr %13) #9
  %40 = load ptr, ptr %6, align 8, !tbaa !3
  %41 = load ptr, ptr %7, align 8, !tbaa !14
  %42 = load i32, ptr %9, align 4, !tbaa !8
  %43 = add nsw i32 %42, 1
  %44 = sext i32 %43 to i64
  %45 = getelementptr inbounds i32, ptr %41, i64 %44
  %46 = load i32, ptr %45, align 4, !tbaa !8
  %47 = sext i32 %46 to i64
  %48 = getelementptr inbounds i8, ptr %40, i64 %47
  store ptr %48, ptr %13, align 8, !tbaa !3
  br label %49

49:                                               ; preds = %104, %4
  %50 = load ptr, ptr %10, align 8, !tbaa !3
  %51 = load ptr, ptr %12, align 8, !tbaa !3
  %52 = icmp ult ptr %50, %51
  br i1 %52, label %53, label %57

53:                                               ; preds = %49
  %54 = load ptr, ptr %11, align 8, !tbaa !3
  %55 = load ptr, ptr %13, align 8, !tbaa !3
  %56 = icmp ult ptr %54, %55
  br label %57

57:                                               ; preds = %53, %49
  %58 = phi i1 [ false, %49 ], [ %56, %53 ]
  br i1 %58, label %59, label %109

59:                                               ; preds = %57
  %60 = load ptr, ptr %10, align 8, !tbaa !3
  %61 = load i8, ptr %60, align 1, !tbaa !10
  %62 = sext i8 %61 to i32
  %63 = icmp sge i32 %62, 97
  br i1 %63, label %64, label %69

64:                                               ; preds = %59
  %65 = load ptr, ptr %10, align 8, !tbaa !3
  %66 = load i8, ptr %65, align 1, !tbaa !10
  %67 = sext i8 %66 to i32
  %68 = icmp sle i32 %67, 122
  br i1 %68, label %72, label %69

69:                                               ; preds = %64, %59
  %70 = load ptr, ptr %11, align 8, !tbaa !3
  %71 = getelementptr inbounds i8, ptr %70, i32 -1
  store ptr %71, ptr %11, align 8, !tbaa !3
  br label %104

72:                                               ; preds = %64
  %73 = load ptr, ptr %11, align 8, !tbaa !3
  %74 = load i8, ptr %73, align 1, !tbaa !10
  %75 = sext i8 %74 to i32
  %76 = icmp sge i32 %75, 97
  br i1 %76, label %77, label %82

77:                                               ; preds = %72
  %78 = load ptr, ptr %11, align 8, !tbaa !3
  %79 = load i8, ptr %78, align 1, !tbaa !10
  %80 = sext i8 %79 to i32
  %81 = icmp sle i32 %80, 122
  br i1 %81, label %85, label %82

82:                                               ; preds = %77, %72
  %83 = load ptr, ptr %10, align 8, !tbaa !3
  %84 = getelementptr inbounds i8, ptr %83, i32 -1
  store ptr %84, ptr %10, align 8, !tbaa !3
  br label %104

85:                                               ; preds = %77
  %86 = load ptr, ptr %10, align 8, !tbaa !3
  %87 = load i8, ptr %86, align 1, !tbaa !10
  %88 = sext i8 %87 to i32
  %89 = load ptr, ptr %11, align 8, !tbaa !3
  %90 = load i8, ptr %89, align 1, !tbaa !10
  %91 = sext i8 %90 to i32
  %92 = icmp slt i32 %88, %91
  br i1 %92, label %93, label %94

93:                                               ; preds = %85
  store i32 -1, ptr %5, align 4
  store i32 1, ptr %14, align 4
  br label %120

94:                                               ; preds = %85
  %95 = load ptr, ptr %10, align 8, !tbaa !3
  %96 = load i8, ptr %95, align 1, !tbaa !10
  %97 = sext i8 %96 to i32
  %98 = load ptr, ptr %11, align 8, !tbaa !3
  %99 = load i8, ptr %98, align 1, !tbaa !10
  %100 = sext i8 %99 to i32
  %101 = icmp sgt i32 %97, %100
  br i1 %101, label %102, label %103

102:                                              ; preds = %94
  store i32 1, ptr %5, align 4
  store i32 1, ptr %14, align 4
  br label %120

103:                                              ; preds = %94
  br label %104

104:                                              ; preds = %103, %82, %69
  %105 = load ptr, ptr %10, align 8, !tbaa !3
  %106 = getelementptr inbounds nuw i8, ptr %105, i32 1
  store ptr %106, ptr %10, align 8, !tbaa !3
  %107 = load ptr, ptr %11, align 8, !tbaa !3
  %108 = getelementptr inbounds nuw i8, ptr %107, i32 1
  store ptr %108, ptr %11, align 8, !tbaa !3
  br label %49, !llvm.loop !20

109:                                              ; preds = %57
  %110 = load ptr, ptr %10, align 8, !tbaa !3
  %111 = load ptr, ptr %12, align 8, !tbaa !3
  %112 = icmp eq ptr %110, %111
  br i1 %112, label %113, label %114

113:                                              ; preds = %109
  store i32 -1, ptr %5, align 4
  store i32 1, ptr %14, align 4
  br label %120

114:                                              ; preds = %109
  %115 = load ptr, ptr %11, align 8, !tbaa !3
  %116 = load ptr, ptr %13, align 8, !tbaa !3
  %117 = icmp eq ptr %115, %116
  br i1 %117, label %118, label %119

118:                                              ; preds = %114
  store i32 1, ptr %5, align 4
  store i32 1, ptr %14, align 4
  br label %120

119:                                              ; preds = %114
  store i32 0, ptr %5, align 4
  store i32 1, ptr %14, align 4
  br label %120

120:                                              ; preds = %119, %118, %113, %102, %93
  call void @llvm.lifetime.end.p0(i64 8, ptr %13) #9
  call void @llvm.lifetime.end.p0(i64 8, ptr %12) #9
  call void @llvm.lifetime.end.p0(i64 8, ptr %11) #9
  call void @llvm.lifetime.end.p0(i64 8, ptr %10) #9
  %121 = load i32, ptr %5, align 4
  ret i32 %121
}