; Function Attrs: nofree norecurse nosync nounwind memory(argmem: read) uwtable
define range(i32 -1, 2) i32 @Dau_DsdNormalizeCompare(ptr noundef readonly %0, ptr noundef readonly captures(none) %1, i32 noundef %2, i32 noundef %3) local_unnamed_addr #2 {
  %5 = sext i32 %2 to i64
  %6 = getelementptr inbounds i32, ptr %1, i64 %5
  %7 = load i32, ptr %6, align 4, !tbaa !6
  %8 = sext i32 %7 to i64
  %9 = getelementptr inbounds i8, ptr %0, i64 %8
  %10 = sext i32 %3 to i64
  %11 = getelementptr inbounds i32, ptr %1, i64 %10
  %12 = load i32, ptr %11, align 4, !tbaa !6
  %13 = sext i32 %12 to i64
  %14 = getelementptr inbounds i8, ptr %0, i64 %13
  %15 = getelementptr i8, ptr %6, i64 4
  %16 = load i32, ptr %15, align 4, !tbaa !6
  %17 = sext i32 %16 to i64
  %18 = getelementptr inbounds i8, ptr %0, i64 %17
  %19 = getelementptr i8, ptr %11, i64 4
  %20 = load i32, ptr %19, align 4, !tbaa !6
  %21 = sext i32 %20 to i64
  %22 = getelementptr inbounds i8, ptr %0, i64 %21
  %23 = icmp slt i32 %7, %16
  %24 = icmp slt i32 %12, %20
  %25 = select i1 %23, i1 %24, i1 false
  br i1 %25, label %.lr.ph, label %._crit_edge

.lr.ph:                                           ; preds = %4, %39
  %.03241 = phi ptr [ %40, %39 ], [ %9, %4 ]
  %.03340 = phi ptr [ %41, %39 ], [ %14, %4 ]
  %26 = load i8, ptr %.03241, align 1, !tbaa !3
  %27 = add i8 %26, -97
  %or.cond = icmp ult i8 %27, 26
  br i1 %or.cond, label %30, label %28

28:                                               ; preds = %.lr.ph
  %29 = getelementptr inbounds i8, ptr %.03340, i64 -1
  br label %39

30:                                               ; preds = %.lr.ph
  %31 = load i8, ptr %.03340, align 1, !tbaa !3
  %32 = add i8 %31, -97
  %or.cond37 = icmp ult i8 %32, 26
  br i1 %or.cond37, label %35, label %33

33:                                               ; preds = %30
  %34 = getelementptr inbounds i8, ptr %.03241, i64 -1
  br label %39

35:                                               ; preds = %30
  %36 = icmp samesign ult i8 %26, %31
  br i1 %36, label %.loopexit, label %37

37:                                               ; preds = %35
  %38 = icmp samesign ugt i8 %26, %31
  br i1 %38, label %.loopexit, label %39

39:                                               ; preds = %37, %33, %28
  %.134 = phi ptr [ %.03340, %37 ], [ %.03340, %33 ], [ %29, %28 ]
  %.1 = phi ptr [ %.03241, %37 ], [ %34, %33 ], [ %.03241, %28 ]
  %40 = getelementptr inbounds nuw i8, ptr %.1, i64 1
  %41 = getelementptr inbounds nuw i8, ptr %.134, i64 1
  %42 = icmp ult ptr %40, %18
  %43 = icmp ult ptr %41, %22
  %44 = select i1 %42, i1 %43, i1 false
  br i1 %44, label %.lr.ph, label %._crit_edge, !llvm.loop !15

._crit_edge:                                      ; preds = %39, %4
  %.033.lcssa = phi ptr [ %14, %4 ], [ %41, %39 ]
  %.032.lcssa = phi ptr [ %9, %4 ], [ %40, %39 ]
  %45 = icmp eq ptr %.032.lcssa, %18
  br i1 %45, label %.loopexit, label %46

46:                                               ; preds = %._crit_edge
  %47 = icmp eq ptr %.033.lcssa, %22
  %. = zext i1 %47 to i32
  br label %.loopexit

.loopexit:                                        ; preds = %37, %35, %46, %._crit_edge
  %.0 = phi i32 [ -1, %._crit_edge ], [ %., %46 ], [ 1, %37 ], [ -1, %35 ]
  ret i32 %.0
}